target datalayout = "e-m:e-p270:32:32-p271:32:32-p272:64:64-i64:64-i128:128-f80:128-n8:16:32:64-S128"
target triple = "x86_64-pc-linux-gnu"

%struct.Vec_Int_t_ = type { i32, i32, ptr }

; Function Attrs: inlinehint nounwind uwtable
define internal ptr @Vec_IntAlloc(i32 noundef %0) #1 {
  %2 = alloca i32, align 4
  %3 = alloca ptr, align 8
  store i32 %0, ptr %2, align 4, !tbaa !3
  call void @llvm.lifetime.start.p0(i64 8, ptr %3) #12
  %4 = call noalias ptr @malloc(i64 noundef 16) #14
  store ptr %4, ptr %3, align 8, !tbaa !39
  %5 = load i32, ptr %2, align 4, !tbaa !3
  %6 = icmp sgt i32 %5, 0
  br i1 %6, label %7, label %11

7:                                                ; preds = %1
  %8 = load i32, ptr %2, align 4, !tbaa !3
  %9 = icmp slt i32 %8, 16
  br i1 %9, label %10, label %11

10:                                               ; preds = %7
  store i32 16, ptr %2, align 4, !tbaa !3
  br label %11

11:                                               ; preds = %10, %7, %1
  %12 = load ptr, ptr %3, align 8, !tbaa !39
  %13 = getelementptr inbounds nuw %struct.Vec_Int_t_, ptr %12, i32 0, i32 1
  store i32 0, ptr %13, align 4, !tbaa !43
  %14 = load i32, ptr %2, align 4, !tbaa !3
  %15 = load ptr, ptr %3, align 8, !tbaa !39
  %16 = getelementptr inbounds nuw %struct.Vec_Int_t_, ptr %15, i32 0, i32 0
  store i32 %14, ptr %16, align 8, !tbaa !44
  %17 = load ptr, ptr %3, align 8, !tbaa !39
  %18 = getelementptr inbounds nuw %struct.Vec_Int_t_, ptr %17, i32 0, i32 0
  %19 = load i32, ptr %18, align 8, !tbaa !44
  %20 = icmp ne i32 %19, 0
  br i1 %20, label %21, label %28

21:                                               ; preds = %11
  %22 = load ptr, ptr %3, align 8, !tbaa !39
  %23 = getelementptr inbounds nuw %struct.Vec_Int_t_, ptr %22, i32 0, i32 0
  %24 = load i32, ptr %23, align 8, !tbaa !44
  %25 = sext i32 %24 to i64
  %26 = mul i64 4, %25
  %27 = call noalias ptr @malloc(i64 noundef %26) #14
  br label %29

28:                                               ; preds = %11
  br label %29

29:                                               ; preds = %28, %21
  %30 = phi ptr [ %27, %21 ], [ null, %28 ]
  %31 = load ptr, ptr %3, align 8, !tbaa !39
  %32 = getelementptr inbounds nuw %struct.Vec_Int_t_, ptr %31, i32 0, i32 2
  store ptr %30, ptr %32, align 8, !tbaa !45
  %33 = load ptr, ptr %3, align 8, !tbaa !39
  call void @llvm.lifetime.end.p0(i64 8, ptr %3) #12
  ret ptr %33
}

; Function Attrs: inlinehint nounwind uwtable
define internal void @Vec_IntWriteEntry(ptr noundef %0, i32 noundef %1, i32 noundef %2) #1 {
  %4 = alloca ptr, align 8
  %5 = alloca i32, align 4
  %6 = alloca i32, align 4
  store ptr %0, ptr %4, align 8, !tbaa !39
  store i32 %1, ptr %5, align 4, !tbaa !3
  store i32 %2, ptr %6, align 4, !tbaa !3
  %7 = load i32, ptr %6, align 4, !tbaa !3
  %8 = load ptr, ptr %4, align 8, !tbaa !39
  %9 = getelementptr inbounds nuw %struct.Vec_Int_t_, ptr %8, i32 0, i32 2
  %10 = load ptr, ptr %9, align 8, !tbaa !45
  %11 = load i32, ptr %5, align 4, !tbaa !3
  %12 = sext i32 %11 to i64
  %13 = getelementptr inbounds i32, ptr %10, i64 %12
  store i32 %7, ptr %13, align 4, !tbaa !3
  ret void
}

; Function Attrs: inlinehint nounwind uwtable
define internal i32 @Vec_IntEntry(ptr noundef %0, i32 noundef %1) #1 {
  %3 = alloca ptr, align 8
  %4 = alloca i32, align 4
  store ptr %0, ptr %3, align 8, !tbaa !39
  store i32 %1, ptr %4, align 4, !tbaa !3
  %5 = load ptr, ptr %3, align 8, !tbaa !39
  %6 = getelementptr inbounds nuw %struct.Vec_Int_t_, ptr %5, i32 0, i32 2
  %7 = load ptr, ptr %6, align 8, !tbaa !45
  %8 = load i32, ptr %4, align 4, !tbaa !3
  %9 = sext i32 %8 to i64
  %10 = getelementptr inbounds i32, ptr %7, i64 %9
  %11 = load i32, ptr %10, align 4, !tbaa !3
  ret i32 %11
}

; Function Attrs: inlinehint nounwind uwtable
define internal i32 @Vec_IntSize(ptr noundef %0) #1 {
  %2 = alloca ptr, align 8
  store ptr %0, ptr %2, align 8, !tbaa !39
  %3 = load ptr, ptr %2, align 8, !tbaa !39
  %4 = getelementptr inbounds nuw %struct.Vec_Int_t_, ptr %3, i32 0, i32 1
  %5 = load i32, ptr %4, align 4, !tbaa !43
  ret i32 %5
}

; Function Attrs: inlinehint nounwind uwtable
define internal ptr @Vec_IntStartFull(i32 noundef %0) #1 {
  %2 = alloca i32, align 4
  %3 = alloca ptr, align 8
  store i32 %0, ptr %2, align 4, !tbaa !3
  call void @llvm.lifetime.start.p0(i64 8, ptr %3) #12
  %4 = load i32, ptr %2, align 4, !tbaa !3
  %5 = call ptr @Vec_IntAlloc(i32 noundef %4)
  store ptr %5, ptr %3, align 8, !tbaa !39
  %6 = load i32, ptr %2, align 4, !tbaa !3
  %7 = load ptr, ptr %3, align 8, !tbaa !39
  %8 = getelementptr inbounds nuw %struct.Vec_Int_t_, ptr %7, i32 0, i32 1
  store i32 %6, ptr %8, align 4, !tbaa !43
  %9 = load ptr, ptr %3, align 8, !tbaa !39
  %10 = getelementptr inbounds nuw %struct.Vec_Int_t_, ptr %9, i32 0, i32 2
  %11 = load ptr, ptr %10, align 8, !tbaa !45
  %12 = icmp ne ptr %11, null
  br i1 %12, label %13, label %20

13:                                               ; preds = %1
  %14 = load ptr, ptr %3, align 8, !tbaa !39
  %15 = getelementptr inbounds nuw %struct.Vec_Int_t_, ptr %14, i32 0, i32 2
  %16 = load ptr, ptr %15, align 8, !tbaa !45
  %17 = load i32, ptr %2, align 4, !tbaa !3
  %18 = sext i32 %17 to i64
  %19 = mul i64 4, %18
  call void @llvm.memset.p0.i64(ptr align 4 %16, i8 -1, i64 %19, i1 false)
  br label %20

20:                                               ; preds = %13, %1
  %21 = load ptr, ptr %3, align 8, !tbaa !39
  call void @llvm.lifetime.end.p0(i64 8, ptr %3) #12
  ret ptr %21
}

; Function Attrs: nounwind uwtable
define ptr @Abc_GraphNodeLife(ptr noundef %0, i32 noundef %1) #0 {
  %3 = alloca ptr, align 8
  %4 = alloca i32, align 4
  %5 = alloca ptr, align 8
  %6 = alloca i32, align 4
  %7 = alloca i32, align 4
  %8 = alloca i32, align 4
  store ptr %0, ptr %3, align 8, !tbaa !39
  store i32 %1, ptr %4, align 4, !tbaa !3
  call void @llvm.lifetime.start.p0(i64 8, ptr %5) #12
  %9 = load i32, ptr %4, align 4, !tbaa !3
  %10 = mul nsw i32 2, %9
  %11 = load i32, ptr %4, align 4, !tbaa !3
  %12 = mul nsw i32 %10, %11
  %13 = call ptr @Vec_IntStartFull(i32 noundef %12)
  store ptr %13, ptr %5, align 8, !tbaa !39
  call void @llvm.lifetime.start.p0(i64 4, ptr %6) #12
  call void @llvm.lifetime.start.p0(i64 4, ptr %7) #12
  call void @llvm.lifetime.start.p0(i64 4, ptr %8) #12
  store i32 0, ptr %8, align 4, !tbaa !3
  br label %14

14:                                               ; preds = %68, %2
  %15 = load i32, ptr %8, align 4, !tbaa !3
  %16 = add nsw i32 %15, 1
  %17 = load ptr, ptr %3, align 8, !tbaa !39
  %18 = call i32 @Vec_IntSize(ptr noundef %17)
  %19 = icmp slt i32 %16, %18
  br i1 %19, label %20, label %29

20:                                               ; preds = %14
  %21 = load ptr, ptr %3, align 8, !tbaa !39
  %22 = load i32, ptr %8, align 4, !tbaa !3
  %23 = call i32 @Vec_IntEntry(ptr noundef %21, i32 noundef %22)
  store i32 %23, ptr %6, align 4, !tbaa !3
  br i1 true, label %24, label %29

24:                                               ; preds = %20
  %25 = load ptr, ptr %3, align 8, !tbaa !39
  %26 = load i32, ptr %8, align 4, !tbaa !3
  %27 = add nsw i32 %26, 1
  %28 = call i32 @Vec_IntEntry(ptr noundef %25, i32 noundef %27)
  store i32 %28, ptr %7, align 4, !tbaa !3
  br label %29

29:                                               ; preds = %24, %20, %14
  %30 = phi i1 [ false, %20 ], [ false, %14 ], [ true, %24 ]
  br i1 %30, label %31, label %71

31:                                               ; preds = %29
  %32 = load ptr, ptr %5, align 8, !tbaa !39
  %33 = load i32, ptr %6, align 4, !tbaa !3
  %34 = mul nsw i32 2, %33
  %35 = call i32 @Vec_IntEntry(ptr noundef %32, i32 noundef %34)
  %36 = icmp eq i32 %35, -1
  br i1 %36, label %37, label %43

37:                                               ; preds = %31
  %38 = load ptr, ptr %5, align 8, !tbaa !39
  %39 = load i32, ptr %6, align 4, !tbaa !3
  %40 = mul nsw i32 2, %39
  %41 = load i32, ptr %8, align 4, !tbaa !3
  %42 = sdiv i32 %41, 2
  call void @Vec_IntWriteEntry(ptr noundef %38, i32 noundef %40, i32 noundef %42)
  br label %43

43:                                               ; preds = %37, %31
  %44 = load ptr, ptr %5, align 8, !tbaa !39
  %45 = load i32, ptr %7, align 4, !tbaa !3
  %46 = mul nsw i32 2, %45
  %47 = call i32 @Vec_IntEntry(ptr noundef %44, i32 noundef %46)
  %48 = icmp eq i32 %47, -1
  br i1 %48, label %49, label %55

49:                                               ; preds = %43
  %50 = load ptr, ptr %5, align 8, !tbaa !39
  %51 = load i32, ptr %7, align 4, !tbaa !3
  %52 = mul nsw i32 2, %51
  %53 = load i32, ptr %8, align 4, !tbaa !3
  %54 = sdiv i32 %53, 2
  call void @Vec_IntWriteEntry(ptr noundef %50, i32 noundef %52, i32 noundef %54)
  br label %55

55:                                               ; preds = %49, %43
  %56 = load ptr, ptr %5, align 8, !tbaa !39
  %57 = load i32, ptr %6, align 4, !tbaa !3
  %58 = mul nsw i32 2, %57
  %59 = add nsw i32 %58, 1
  %60 = load i32, ptr %8, align 4, !tbaa !3
  %61 = sdiv i32 %60, 2
  call void @Vec_IntWriteEntry(ptr noundef %56, i32 noundef %59, i32 noundef %61)
  %62 = load ptr, ptr %5, align 8, !tbaa !39
  %63 = load i32, ptr %7, align 4, !tbaa !3
  %64 = mul nsw i32 2, %63
  %65 = add nsw i32 %64, 1
  %66 = load i32, ptr %8, align 4, !tbaa !3
  %67 = sdiv i32 %66, 2
  call void @Vec_IntWriteEntry(ptr noundef %62, i32 noundef %65, i32 noundef %67)
  br label %68

68:                                               ; preds = %55
  %69 = load i32, ptr %8, align 4, !tbaa !3
  %70 = add nsw i32 %69, 2
  store i32 %70, ptr %8, align 4, !tbaa !3
  br label %14, !llvm.loop !46

71:                                               ; preds = %29
  %72 = load ptr, ptr %5, align 8, !tbaa !39
  call void @llvm.lifetime.end.p0(i64 4, ptr %8) #12
  call void @llvm.lifetime.end.p0(i64 4, ptr %7) #12
  call void @llvm.lifetime.end.p0(i64 4, ptr %6) #12
  call void @llvm.lifetime.end.p0(i64 8, ptr %5) #12
  ret ptr %72
}