; Function Attrs: nofree nounwind uwtable
define noalias noundef ptr @Abc_GraphNodeLife(ptr noundef readonly captures(none) %0, i32 noundef %1) local_unnamed_addr #7 {
  %3 = shl nsw i32 %1, 1
  %4 = mul nsw i32 %3, %1
  %5 = tail call noalias dereferenceable_or_null(16) ptr @malloc(i64 noundef 16) #26
  %6 = add i32 %4, -1
  %or.cond.i.i = icmp ult i32 %6, 15
  %spec.store.select.i.i = select i1 %or.cond.i.i, i32 16, i32 %4
  %7 = getelementptr inbounds nuw i8, ptr %5, i64 4
  store i32 %spec.store.select.i.i, ptr %5, align 8, !tbaa !36
  %.not.i.i = icmp eq i32 %spec.store.select.i.i, 0
  br i1 %.not.i.i, label %Vec_IntAlloc.exit.thread.i, label %Vec_IntAlloc.exit.i

Vec_IntAlloc.exit.thread.i:                       ; preds = %2
  %8 = getelementptr inbounds nuw i8, ptr %5, i64 8
  store ptr null, ptr %8, align 8, !tbaa !37
  store i32 %4, ptr %7, align 4, !tbaa !34
  br label %Vec_IntStartFull.exit

Vec_IntAlloc.exit.i:                              ; preds = %2
  %9 = sext i32 %spec.store.select.i.i to i64
  %10 = shl nsw i64 %9, 2
  %11 = tail call noalias ptr @malloc(i64 noundef %10) #26
  %12 = getelementptr inbounds nuw i8, ptr %5, i64 8
  store ptr %11, ptr %12, align 8, !tbaa !37
  store i32 %4, ptr %7, align 4, !tbaa !34
  %.not.i = icmp eq ptr %11, null
  br i1 %.not.i, label %Vec_IntStartFull.exit, label %13

13:                                               ; preds = %Vec_IntAlloc.exit.i
  %14 = sext i32 %4 to i64
  %15 = shl nsw i64 %14, 2
  tail call void @llvm.memset.p0.i64(ptr nonnull align 4 %11, i8 -1, i64 %15, i1 false)
  br label %Vec_IntStartFull.exit

Vec_IntStartFull.exit:                            ; preds = %Vec_IntAlloc.exit.thread.i, %Vec_IntAlloc.exit.i, %13
  %.val28 = phi ptr [ null, %Vec_IntAlloc.exit.thread.i ], [ null, %Vec_IntAlloc.exit.i ], [ %11, %13 ]
  %16 = getelementptr i8, ptr %0, i64 4
  %.val34 = load i32, ptr %16, align 4, !tbaa !34
  %17 = icmp sgt i32 %.val34, 1
  br i1 %17, label %.lr.ph, label %.critedge

.lr.ph:                                           ; preds = %Vec_IntStartFull.exit
  %18 = getelementptr i8, ptr %0, i64 8
  %.val26 = load ptr, ptr %18, align 8, !tbaa !37
  br label %19

19:                                               ; preds = %.lr.ph, %._crit_edge
  %indvars.iv = phi i64 [ 0, %.lr.ph ], [ %indvars.iv.next, %._crit_edge ]
  %20 = or disjoint i64 %indvars.iv, 1
  %21 = getelementptr inbounds nuw i32, ptr %.val26, i64 %indvars.iv
  %22 = load i32, ptr %21, align 4, !tbaa !5
  %23 = getelementptr inbounds nuw i32, ptr %.val26, i64 %20
  %24 = load i32, ptr %23, align 4, !tbaa !5
  %25 = shl nsw i32 %22, 1
  %26 = sext i32 %25 to i64
  %27 = getelementptr inbounds i32, ptr %.val28, i64 %26
  %28 = load i32, ptr %27, align 4, !tbaa !5
  %29 = icmp eq i32 %28, -1
  br i1 %29, label %30, label %33

30:                                               ; preds = %19
  %31 = lshr exact i64 %indvars.iv, 1
  %32 = trunc nuw i64 %31 to i32
  store i32 %32, ptr %27, align 4, !tbaa !5
  br label %33

33:                                               ; preds = %30, %19
  %34 = shl nsw i32 %24, 1
  %35 = sext i32 %34 to i64
  %36 = getelementptr inbounds i32, ptr %.val28, i64 %35
  %37 = load i32, ptr %36, align 4, !tbaa !5
  %38 = icmp eq i32 %37, -1
  %39 = lshr exact i64 %indvars.iv, 1
  %40 = trunc nuw i64 %39 to i32
  br i1 %38, label %41, label %._crit_edge

41:                                               ; preds = %33
  store i32 %40, ptr %36, align 4, !tbaa !5
  br label %._crit_edge

._crit_edge:                                      ; preds = %33, %41
  %42 = or disjoint i32 %25, 1
  %43 = sext i32 %42 to i64
  %44 = getelementptr inbounds i32, ptr %.val28, i64 %43
  store i32 %40, ptr %44, align 4, !tbaa !5
  %45 = or disjoint i32 %34, 1
  %46 = sext i32 %45 to i64
  %47 = getelementptr inbounds i32, ptr %.val28, i64 %46
  store i32 %40, ptr %47, align 4, !tbaa !5
  %indvars.iv.next = add nuw nsw i64 %indvars.iv, 2
  %48 = trunc i64 %indvars.iv.next to i32
  %49 = or disjoint i32 %48, 1
  %50 = icmp slt i32 %49, %.val34
  br i1 %50, label %19, label %.critedge, !llvm.loop !42

.critedge:                                        ; preds = %._crit_edge, %Vec_IntStartFull.exit
  ret ptr %5
}